target datalayout = "e-m:e-p270:32:32-p271:32:32-p272:64:64-i64:64-i128:128-f80:128-n8:16:32:64-S128"
target triple = "x86_64-pc-linux-gnu"

%struct.btInfMaskConverter = type { %union.anon }
%union.anon = type { float }
%struct.btCollisionAlgorithmConstructionInfo = type { ptr, ptr }
%class.btCollisionAlgorithm = type { ptr, ptr }

$_ZN18btInfMaskConverterC2Ei = comdat any

$_ZN20btCollisionAlgorithmD2Ev = comdat any

$_ZN20btCollisionAlgorithmD0Ev = comdat any

$_ZTV20btCollisionAlgorithm = comdat any

$_ZTI20btCollisionAlgorithm = comdat any

$_ZTS20btCollisionAlgorithm = comdat any

@_ZL14btInfinityMask = internal global %struct.btInfMaskConverter zeroinitializer, align 4
@_ZTV20btCollisionAlgorithm = linkonce_odr dso_local unnamed_addr constant { [7 x ptr] } { [7 x ptr] [ptr null, ptr @_ZTI20btCollisionAlgorithm, ptr @_ZN20btCollisionAlgorithmD2Ev, ptr @_ZN20btCollisionAlgorithmD0Ev, ptr @__cxa_pure_virtual, ptr @__cxa_pure_virtual, ptr @__cxa_pure_virtual] }, comdat, align 8
@_ZTI20btCollisionAlgorithm = linkonce_odr dso_local constant { ptr, ptr } { ptr getelementptr inbounds (ptr, ptr @_ZTVN10__cxxabiv117__class_type_infoE, i64 2), ptr @_ZTS20btCollisionAlgorithm }, comdat, align 8
@_ZTVN10__cxxabiv117__class_type_infoE = external global [0 x ptr]
@_ZTS20btCollisionAlgorithm = linkonce_odr dso_local constant [23 x i8] c"20btCollisionAlgorithm\00", comdat, align 1
@llvm.global_ctors = appending global [1 x { i32, ptr, ptr }] [{ i32, ptr, ptr } { i32 65535, ptr @_GLOBAL__sub_I_btCollisionAlgorithm.cpp, ptr null }]

; Function Attrs: uwtable
define internal void @__cxx_global_var_init() #0 section ".text.startup" {
  call void @_ZN18btInfMaskConverterC2Ei(ptr noundef nonnull align 4 dereferenceable(4) @_ZL14btInfinityMask, i32 noundef 2139095040)
  ret void
}

; Function Attrs: mustprogress nounwind uwtable
define linkonce_odr dso_local void @_ZN18btInfMaskConverterC2Ei(ptr noundef nonnull align 4 dereferenceable(4) %0, i32 noundef %1) unnamed_addr #1 comdat align 2 {
  %3 = alloca ptr, align 8
  %4 = alloca i32, align 4
  store ptr %0, ptr %3, align 8, !tbaa !4
  store i32 %1, ptr %4, align 4, !tbaa !9
  %5 = load ptr, ptr %3, align 8
  %6 = getelementptr inbounds nuw %struct.btInfMaskConverter, ptr %5, i32 0, i32 0
  %7 = load i32, ptr %4, align 4, !tbaa !9
  store i32 %7, ptr %6, align 4, !tbaa !11
  ret void
}

; Function Attrs: mustprogress nounwind uwtable
define dso_local void @_ZN20btCollisionAlgorithmC2ERK36btCollisionAlgorithmConstructionInfo(ptr noundef nonnull align 8 dereferenceable(16) %0, ptr noundef nonnull align 8 dereferenceable(16) %1) unnamed_addr #1 align 2 {
  %3 = alloca ptr, align 8
  %4 = alloca ptr, align 8
  store ptr %0, ptr %3, align 8, !tbaa !12
  store ptr %1, ptr %4, align 8, !tbaa !14
  %5 = load ptr, ptr %3, align 8
  store ptr getelementptr inbounds inrange(-16, 40) ({ [7 x ptr] }, ptr @_ZTV20btCollisionAlgorithm, i32 0, i32 0, i32 2), ptr %5, align 8, !tbaa !16
  %6 = load ptr, ptr %4, align 8, !tbaa !14
  %7 = getelementptr inbounds nuw %struct.btCollisionAlgorithmConstructionInfo, ptr %6, i32 0, i32 0
  %8 = load ptr, ptr %7, align 8, !tbaa !18
  %9 = getelementptr inbounds nuw %class.btCollisionAlgorithm, ptr %5, i32 0, i32 1
  store ptr %8, ptr %9, align 8, !tbaa !22
  ret void
}

; Function Attrs: mustprogress nounwind uwtable
define linkonce_odr dso_local void @_ZN20btCollisionAlgorithmD2Ev(ptr noundef nonnull align 8 dereferenceable(16) %0) unnamed_addr #1 comdat align 2 {
  %2 = alloca ptr, align 8
  store ptr %0, ptr %2, align 8, !tbaa !12
  ret void
}

; Function Attrs: mustprogress nounwind uwtable
define linkonce_odr dso_local void @_ZN20btCollisionAlgorithmD0Ev(ptr noundef nonnull align 8 dereferenceable(16) %0) unnamed_addr #1 comdat align 2 {
  %2 = alloca ptr, align 8
  store ptr %0, ptr %2, align 8, !tbaa !12
  call void @llvm.trap() #3
  unreachable
}

declare void @__cxa_pure_virtual() unnamed_addr

; Function Attrs: cold noreturn nounwind memory(inaccessiblemem: write)
declare void @llvm.trap() #2

; Function Attrs: uwtable
define internal void @_GLOBAL__sub_I_btCollisionAlgorithm.cpp() #0 section ".text.startup" {
  call void @__cxx_global_var_init()
  ret void
}


!llvm.module.flags = !{!0, !1, !2, !3}

!0 = !{i32 1, !"wchar_size", i32 4}
!1 = !{i32 8, !"PIC Level", i32 2}
!2 = !{i32 7, !"PIE Level", i32 2}
!3 = !{i32 7, !"uwtable", i32 2}
!4 = !{!5, !5, i64 0}
!5 = !{!"p1 _ZTS18btInfMaskConverter", !6, i64 0}
!6 = !{!"any pointer", !7, i64 0}
!7 = !{!"omnipotent char", !8, i64 0}
!8 = !{!"Simple C++ TBAA"}
!9 = !{!10, !10, i64 0}
!10 = !{!"int", !7, i64 0}
!11 = !{!7, !7, i64 0}
!12 = !{!13, !13, i64 0}
!13 = !{!"p1 _ZTS20btCollisionAlgorithm", !6, i64 0}
!14 = !{!15, !15, i64 0}
!15 = !{!"p1 _ZTS36btCollisionAlgorithmConstructionInfo", !6, i64 0}
!16 = !{!17, !17, i64 0}
!17 = !{!"vtable pointer", !8, i64 0}
!18 = !{!19, !20, i64 0}
!19 = !{!"_ZTS36btCollisionAlgorithmConstructionInfo", !20, i64 0, !21, i64 8}
!20 = !{!"p1 _ZTS12btDispatcher", !6, i64 0}
!21 = !{!"p1 _ZTS20btPersistentManifold", !6, i64 0}
!22 = !{!23, !20, i64 8}
!23 = !{!"_ZTS20btCollisionAlgorithm", !20, i64 8}
