; ModuleID = 'bench/bullet3/original/btCollisionAlgorithm.ll'
source_filename = "bench/bullet3/original/btCollisionAlgorithm.ll"
target datalayout = "e-m:e-p270:32:32-p271:32:32-p272:64:64-i64:64-i128:128-f80:128-n8:16:32:64-S128"
target triple = "x86_64-pc-linux-gnu"

$_ZN20btCollisionAlgorithmD2Ev = comdat any

$_ZN20btCollisionAlgorithmD0Ev = comdat any

$_ZTV20btCollisionAlgorithm = comdat any

$_ZTI20btCollisionAlgorithm = comdat any

$_ZTS20btCollisionAlgorithm = comdat any

@_ZTV20btCollisionAlgorithm = linkonce_odr dso_local unnamed_addr constant { [7 x ptr] } { [7 x ptr] [ptr null, ptr @_ZTI20btCollisionAlgorithm, ptr @_ZN20btCollisionAlgorithmD2Ev, ptr @_ZN20btCollisionAlgorithmD0Ev, ptr @__cxa_pure_virtual, ptr @__cxa_pure_virtual, ptr @__cxa_pure_virtual] }, comdat, align 8
@_ZTI20btCollisionAlgorithm = linkonce_odr dso_local constant { ptr, ptr } { ptr getelementptr inbounds (ptr, ptr @_ZTVN10__cxxabiv117__class_type_infoE, i64 2), ptr @_ZTS20btCollisionAlgorithm }, comdat, align 8
@_ZTVN10__cxxabiv117__class_type_infoE = external global [0 x ptr]
@_ZTS20btCollisionAlgorithm = linkonce_odr dso_local constant [23 x i8] c"20btCollisionAlgorithm\00", comdat, align 1
@llvm.global_ctors = appending global [0 x { i32, ptr, ptr }] zeroinitializer

; Function Attrs: mustprogress nofree norecurse nosync nounwind willreturn memory(argmem: readwrite) uwtable
define dso_local void @_ZN20btCollisionAlgorithmC2ERK36btCollisionAlgorithmConstructionInfo(ptr noundef nonnull writeonly align 8 captures(none) dereferenceable(16) initializes((0, 16)) %0, ptr noundef nonnull readonly align 8 captures(none) dereferenceable(16) %1) unnamed_addr #0 align 2 {
  store ptr getelementptr inbounds nuw inrange(-16, 40) (i8, ptr @_ZTV20btCollisionAlgorithm, i64 16), ptr %0, align 8, !tbaa !4
  %3 = load ptr, ptr %1, align 8, !tbaa !7
  %4 = getelementptr inbounds nuw i8, ptr %0, i64 8
  store ptr %3, ptr %4, align 8, !tbaa !13
  ret void
}

; Function Attrs: mustprogress nounwind uwtable
define linkonce_odr dso_local void @_ZN20btCollisionAlgorithmD2Ev(ptr noundef nonnull align 8 dereferenceable(16) %0) unnamed_addr #1 comdat align 2 {
  ret void
}

; Function Attrs: mustprogress nounwind uwtable
define linkonce_odr dso_local void @_ZN20btCollisionAlgorithmD0Ev(ptr noundef nonnull align 8 dereferenceable(16) %0) unnamed_addr #1 comdat align 2 {
  tail call void @llvm.trap() #3
  unreachable
}

declare void @__cxa_pure_virtual() unnamed_addr

; Function Attrs: cold noreturn nounwind memory(inaccessiblemem: write)
declare void @llvm.trap() #2


!llvm.module.flags = !{!0, !1, !2, !3}

!0 = !{i32 1, !"wchar_size", i32 4}
!1 = !{i32 8, !"PIC Level", i32 2}
!2 = !{i32 7, !"PIE Level", i32 2}
!3 = !{i32 7, !"uwtable", i32 2}
!4 = !{!5, !5, i64 0}
!5 = !{!"vtable pointer", !6, i64 0}
!6 = !{!"Simple C++ TBAA"}
!7 = !{!8, !9, i64 0}
!8 = !{!"_ZTS36btCollisionAlgorithmConstructionInfo", !9, i64 0, !12, i64 8}
!9 = !{!"p1 _ZTS12btDispatcher", !10, i64 0}
!10 = !{!"any pointer", !11, i64 0}
!11 = !{!"omnipotent char", !6, i64 0}
!12 = !{!"p1 _ZTS20btPersistentManifold", !10, i64 0}
!13 = !{!14, !9, i64 8}
!14 = !{!"_ZTS20btCollisionAlgorithm", !9, i64 8}
